target datalayout = "e-m:e-p270:32:32-p271:32:32-p272:64:64-i64:64-i128:128-f80:128-n8:16:32:64-S128"
target triple = "x86_64-pc-linux-gnu"

%struct.asdl_expr_seq = type { i64, ptr, [1 x ptr] }
%struct._comprehension = type { ptr, ptr, ptr, i32 }

@.str.32 = private unnamed_addr constant [5 x i8] c" if \00", align 1
@.str.34 = private unnamed_addr constant [12 x i8] c" async for \00", align 1
@.str.35 = private unnamed_addr constant [6 x i8] c" for \00", align 1
@.str.36 = private unnamed_addr constant [5 x i8] c" in \00", align 1

; Function Attrs: nounwind uwtable
define internal i32 @append_charp(ptr noundef %0, ptr noundef %1) #0 {
  %3 = alloca ptr, align 8
  %4 = alloca ptr, align 8
  store ptr %0, ptr %3, align 8, !tbaa !11
  store ptr %1, ptr %4, align 8, !tbaa !18
  %5 = load ptr, ptr %3, align 8, !tbaa !11
  %6 = load ptr, ptr %4, align 8, !tbaa !18
  %7 = call i32 @PyUnicodeWriter_WriteUTF8(ptr noundef %5, ptr noundef %6, i64 noundef -1)
  ret i32 %7
}

; Function Attrs: nounwind uwtable
define internal i32 @append_ast_comprehension(ptr noundef %0, ptr noundef %1) #0 {
  %3 = alloca i32, align 4
  %4 = alloca ptr, align 8
  %5 = alloca ptr, align 8
  %6 = alloca i64, align 8
  %7 = alloca i64, align 8
  %8 = alloca i32, align 4
  store ptr %0, ptr %4, align 8, !tbaa !11
  store ptr %1, ptr %5, align 8, !tbaa !58
  call void @llvm.lifetime.start.p0(i64 8, ptr %6) #6
  call void @llvm.lifetime.start.p0(i64 8, ptr %7) #6
  br label %9

9:                                                ; preds = %2
  %10 = load ptr, ptr %4, align 8, !tbaa !11
  %11 = load ptr, ptr %5, align 8, !tbaa !58
  %12 = getelementptr inbounds nuw %struct._comprehension, ptr %11, i32 0, i32 3
  %13 = load i32, ptr %12, align 8, !tbaa !61
  %14 = icmp ne i32 %13, 0
  %15 = select i1 %14, ptr @.str.34, ptr @.str.35
  %16 = call i32 @append_charp(ptr noundef %10, ptr noundef %15)
  %17 = icmp eq i32 -1, %16
  br i1 %17, label %18, label %19

18:                                               ; preds = %9
  store i32 -1, ptr %3, align 4
  store i32 1, ptr %8, align 4
  br label %97

19:                                               ; preds = %9
  br label %20

20:                                               ; preds = %19
  br label %21

21:                                               ; preds = %20
  br label %22

22:                                               ; preds = %21
  %23 = load ptr, ptr %4, align 8, !tbaa !11
  %24 = load ptr, ptr %5, align 8, !tbaa !58
  %25 = getelementptr inbounds nuw %struct._comprehension, ptr %24, i32 0, i32 0
  %26 = load ptr, ptr %25, align 8, !tbaa !63
  %27 = call i32 @append_ast_expr(ptr noundef %23, ptr noundef %26, i32 noundef 0)
  %28 = icmp eq i32 -1, %27
  br i1 %28, label %29, label %30

29:                                               ; preds = %22
  store i32 -1, ptr %3, align 4
  store i32 1, ptr %8, align 4
  br label %97

30:                                               ; preds = %22
  br label %31

31:                                               ; preds = %30
  br label %32

32:                                               ; preds = %31
  br label %33

33:                                               ; preds = %32
  %34 = load ptr, ptr %4, align 8, !tbaa !11
  %35 = call i32 @append_charp(ptr noundef %34, ptr noundef @.str.36)
  %36 = icmp eq i32 -1, %35
  br i1 %36, label %37, label %38

37:                                               ; preds = %33
  store i32 -1, ptr %3, align 4
  store i32 1, ptr %8, align 4
  br label %97

38:                                               ; preds = %33
  br label %39

39:                                               ; preds = %38
  br label %40

40:                                               ; preds = %39
  br label %41

41:                                               ; preds = %40
  %42 = load ptr, ptr %4, align 8, !tbaa !11
  %43 = load ptr, ptr %5, align 8, !tbaa !58
  %44 = getelementptr inbounds nuw %struct._comprehension, ptr %43, i32 0, i32 1
  %45 = load ptr, ptr %44, align 8, !tbaa !64
  %46 = call i32 @append_ast_expr(ptr noundef %42, ptr noundef %45, i32 noundef 2)
  %47 = icmp eq i32 -1, %46
  br i1 %47, label %48, label %49

48:                                               ; preds = %41
  store i32 -1, ptr %3, align 4
  store i32 1, ptr %8, align 4
  br label %97

49:                                               ; preds = %41
  br label %50

50:                                               ; preds = %49
  br label %51

51:                                               ; preds = %50
  %52 = load ptr, ptr %5, align 8, !tbaa !58
  %53 = getelementptr inbounds nuw %struct._comprehension, ptr %52, i32 0, i32 2
  %54 = load ptr, ptr %53, align 8, !tbaa !65
  %55 = icmp eq ptr %54, null
  br i1 %55, label %56, label %57

56:                                               ; preds = %51
  br label %63

57:                                               ; preds = %51
  %58 = load ptr, ptr %5, align 8, !tbaa !58
  %59 = getelementptr inbounds nuw %struct._comprehension, ptr %58, i32 0, i32 2
  %60 = load ptr, ptr %59, align 8, !tbaa !65
  %61 = getelementptr inbounds nuw %struct.asdl_expr_seq, ptr %60, i32 0, i32 0
  %62 = load i64, ptr %61, align 8, !tbaa !21
  br label %63

63:                                               ; preds = %57, %56
  %64 = phi i64 [ 0, %56 ], [ %62, %57 ]
  store i64 %64, ptr %7, align 8, !tbaa !24
  store i64 0, ptr %6, align 8, !tbaa !24
  br label %65

65:                                               ; preds = %93, %63
  %66 = load i64, ptr %6, align 8, !tbaa !24
  %67 = load i64, ptr %7, align 8, !tbaa !24
  %68 = icmp slt i64 %66, %67
  br i1 %68, label %69, label %96

69:                                               ; preds = %65
  br label %70

70:                                               ; preds = %69
  %71 = load ptr, ptr %4, align 8, !tbaa !11
  %72 = call i32 @append_charp(ptr noundef %71, ptr noundef @.str.32)
  %73 = icmp eq i32 -1, %72
  br i1 %73, label %74, label %75

74:                                               ; preds = %70
  store i32 -1, ptr %3, align 4
  store i32 1, ptr %8, align 4
  br label %97

75:                                               ; preds = %70
  br label %76

76:                                               ; preds = %75
  br label %77

77:                                               ; preds = %76
  br label %78

78:                                               ; preds = %77
  %79 = load ptr, ptr %4, align 8, !tbaa !11
  %80 = load ptr, ptr %5, align 8, !tbaa !58
  %81 = getelementptr inbounds nuw %struct._comprehension, ptr %80, i32 0, i32 2
  %82 = load ptr, ptr %81, align 8, !tbaa !65
  %83 = getelementptr inbounds nuw %struct.asdl_expr_seq, ptr %82, i32 0, i32 2
  %84 = load i64, ptr %6, align 8, !tbaa !24
  %85 = getelementptr [1 x ptr], ptr %83, i64 0, i64 %84
  %86 = load ptr, ptr %85, align 8, !tbaa !4
  %87 = call i32 @append_ast_expr(ptr noundef %79, ptr noundef %86, i32 noundef 2)
  %88 = icmp eq i32 -1, %87
  br i1 %88, label %89, label %90

89:                                               ; preds = %78
  store i32 -1, ptr %3, align 4
  store i32 1, ptr %8, align 4
  br label %97

90:                                               ; preds = %78
  br label %91

91:                                               ; preds = %90
  br label %92

92:                                               ; preds = %91
  br label %93

93:                                               ; preds = %92
  %94 = load i64, ptr %6, align 8, !tbaa !24
  %95 = add i64 %94, 1
  store i64 %95, ptr %6, align 8, !tbaa !24
  br label %65, !llvm.loop !66

96:                                               ; preds = %65
  store i32 0, ptr %3, align 4
  store i32 1, ptr %8, align 4
  br label %97

97:                                               ; preds = %96, %89, %74, %48, %37, %29, %18
  call void @llvm.lifetime.end.p0(i64 8, ptr %7) #6
  call void @llvm.lifetime.end.p0(i64 8, ptr %6) #6
  %98 = load i32, ptr %3, align 4
  ret i32 %98
}