; Function Attrs: nounwind uwtable
define internal fastcc range(i32 -1, 1) i32 @append_ast_comprehension(ptr noundef nonnull %0, ptr noundef readonly captures(none) %1) unnamed_addr #0 {
  %3 = getelementptr inbounds nuw i8, ptr %1, i64 24
  %4 = load i32, ptr %3, align 8, !tbaa !58
  %.not = icmp eq i32 %4, 0
  %5 = select i1 %.not, ptr @.str.35, ptr @.str.34
  %6 = tail call i32 @PyUnicodeWriter_WriteUTF8(ptr noundef nonnull %0, ptr noundef nonnull %5, i64 noundef -1) #3
  %7 = icmp eq i32 %6, -1
  br i1 %7, label %.loopexit, label %8

8:                                                ; preds = %2
  %9 = load ptr, ptr %1, align 8, !tbaa !60
  %10 = tail call fastcc i32 @append_ast_expr(ptr noundef %0, ptr noundef %9, i32 noundef 0)
  %11 = icmp eq i32 %10, -1
  br i1 %11, label %.loopexit, label %12

12:                                               ; preds = %8
  %13 = tail call i32 @PyUnicodeWriter_WriteUTF8(ptr noundef nonnull %0, ptr noundef nonnull @.str.36, i64 noundef -1) #3
  %14 = icmp eq i32 %13, -1
  br i1 %14, label %.loopexit, label %15

15:                                               ; preds = %12
  %16 = getelementptr inbounds nuw i8, ptr %1, i64 8
  %17 = load ptr, ptr %16, align 8, !tbaa !61
  %18 = tail call fastcc i32 @append_ast_expr(ptr noundef %0, ptr noundef %17, i32 noundef 2)
  %19 = icmp eq i32 %18, -1
  br i1 %19, label %.loopexit, label %20

20:                                               ; preds = %15
  %21 = getelementptr inbounds nuw i8, ptr %1, i64 16
  %22 = load ptr, ptr %21, align 8, !tbaa !62
  %23 = icmp eq ptr %22, null
  br i1 %23, label %.loopexit, label %24

24:                                               ; preds = %20
  %25 = load i64, ptr %22, align 8, !tbaa !10
  %26 = icmp sgt i64 %25, 0
  br i1 %26, label %.lr.ph, label %.loopexit

27:                                               ; preds = %31
  %28 = add nuw nsw i64 %.01618, 1
  %exitcond.not = icmp eq i64 %28, %25
  br i1 %exitcond.not, label %.loopexit, label %.lr.ph, !llvm.loop !63

.lr.ph:                                           ; preds = %24, %27
  %.01618 = phi i64 [ %28, %27 ], [ 0, %24 ]
  %29 = tail call i32 @PyUnicodeWriter_WriteUTF8(ptr noundef nonnull %0, ptr noundef nonnull @.str.32, i64 noundef -1) #3
  %30 = icmp eq i32 %29, -1
  br i1 %30, label %.loopexit, label %31

31:                                               ; preds = %.lr.ph
  %32 = load ptr, ptr %21, align 8, !tbaa !62
  %33 = getelementptr inbounds nuw i8, ptr %32, i64 16
  %34 = getelementptr [1 x ptr], ptr %33, i64 0, i64 %.01618
  %35 = load ptr, ptr %34, align 8, !tbaa !16
  %36 = tail call fastcc i32 @append_ast_expr(ptr noundef %0, ptr noundef %35, i32 noundef 2)
  %37 = icmp eq i32 %36, -1
  br i1 %37, label %.loopexit, label %27

.loopexit:                                        ; preds = %.lr.ph, %31, %27, %20, %24, %15, %12, %8, %2
  %.0 = phi i32 [ -1, %2 ], [ -1, %8 ], [ -1, %12 ], [ -1, %15 ], [ 0, %24 ], [ 0, %20 ], [ -1, %.lr.ph ], [ -1, %31 ], [ 0, %27 ]
  ret i32 %.0
}